target datalayout = "e-m:e-p270:32:32-p271:32:32-p272:64:64-i64:64-i128:128-f80:128-n8:16:32:64-S128"
target triple = "x86_64-pc-linux-gnu"

@pj_release = constant [32 x i8] c"Rel. 9.5.0, September 1st, 2024\00", align 16

; Function Attrs: mustprogress nounwind uwtable
define noundef ptr @_Z14pj_get_releasev() #0 {
  ret ptr @pj_release
}


!llvm.module.flags = !{!0, !1, !2, !3}

!0 = !{i32 1, !"wchar_size", i32 4}
!1 = !{i32 8, !"PIC Level", i32 2}
!2 = !{i32 7, !"uwtable", i32 2}
!3 = !{i32 7, !"frame-pointer", i32 2}
